target datalayout = "e-m:e-p270:32:32-p271:32:32-p272:64:64-i64:64-i128:128-f80:128-n8:16:32:64-S128"
target triple = "x86_64-unknown-linux-gnu"

%"class.Assimp::Ogre::OgreBinarySerializer" = type <{ i32, [4 x i8], ptr, i32, [4 x i8] }>
%"class.std::__shared_count" = type { ptr }
%"class.std::__cxx11::basic_string" = type { %"struct.std::__cxx11::basic_string<char>::_Alloc_hider", i64, %union.anon }
%"struct.std::__cxx11::basic_string<char>::_Alloc_hider" = type { ptr }
%union.anon = type { i64, [8 x i8] }
%"class.std::shared_ptr.86" = type { %"class.std::__shared_ptr.87" }
%"class.std::__shared_ptr.87" = type { ptr, %"class.std::__shared_count" }
%"class.Assimp::Ogre::MeshXml" = type { %"class.std::__cxx11::basic_string", ptr, ptr, %"class.std::vector.94" }
%"class.std::vector.94" = type { %"struct.std::_Vector_base.95" }
%"struct.std::_Vector_base.95" = type { %"struct.std::_Vector_base<Assimp::Ogre::SubMeshXml *, std::allocator<Assimp::Ogre::SubMeshXml *>>::_Vector_impl" }
%"struct.std::_Vector_base<Assimp::Ogre::SubMeshXml *, std::allocator<Assimp::Ogre::SubMeshXml *>>::_Vector_impl" = type { %"struct.std::_Vector_base<Assimp::Ogre::SubMeshXml *, std::allocator<Assimp::Ogre::SubMeshXml *>>::_Vector_impl_data" }
%"struct.std::_Vector_base<Assimp::Ogre::SubMeshXml *, std::allocator<Assimp::Ogre::SubMeshXml *>>::_Vector_impl_data" = type { ptr, ptr, ptr }

; Function Attrs: mustprogress nounwind uwtable
define linkonce_odr hidden void @_ZN6Assimp4Ogre20OgreBinarySerializerC2EPNS_12StreamReaderILb0ELb0EEENS1_9AssetModeE(ptr noundef nonnull align 8 dereferenceable(20) %this, ptr noundef %reader, i32 noundef %mode) unnamed_addr #0 comdat align 2 {
entry:
  %this.addr = alloca ptr, align 8
  %reader.addr = alloca ptr, align 8
  %mode.addr = alloca i32, align 4
  store ptr %this, ptr %this.addr, align 8
  store ptr %reader, ptr %reader.addr, align 8
  store i32 %mode, ptr %mode.addr, align 4
  %this1 = load ptr, ptr %this.addr, align 8
  %m_currentLen = getelementptr inbounds %"class.Assimp::Ogre::OgreBinarySerializer", ptr %this1, i32 0, i32 0
  store i32 0, ptr %m_currentLen, align 8
  %m_reader = getelementptr inbounds %"class.Assimp::Ogre::OgreBinarySerializer", ptr %this1, i32 0, i32 2
  %0 = load ptr, ptr %reader.addr, align 8
  store ptr %0, ptr %m_reader, align 8
  %assetMode = getelementptr inbounds %"class.Assimp::Ogre::OgreBinarySerializer", ptr %this1, i32 0, i32 3
  %1 = load i32, ptr %mode.addr, align 4
  store i32 %1, ptr %assetMode, align 8
  ret void
}

; Function Attrs: mustprogress nounwind uwtable
define linkonce_odr hidden noundef ptr @_ZNKSt12__shared_ptrIN6Assimp12StreamReaderILb0ELb0EEELN9__gnu_cxx12_Lock_policyE2EE3getEv(ptr noundef nonnull align 8 dereferenceable(16) %this) #0 comdat align 2 {
entry:
  %this.addr = alloca ptr, align 8
  store ptr %this, ptr %this.addr, align 8
  %this1 = load ptr, ptr %this.addr, align 8
  %_M_ptr = getelementptr inbounds %"class.std::__shared_ptr.87", ptr %this1, i32 0, i32 0
  %0 = load ptr, ptr %_M_ptr, align 8
  ret ptr %0
}

; Function Attrs: mustprogress uwtable
define hidden noundef zeroext i1 @_ZN6Assimp4Ogre20OgreBinarySerializer14ImportSkeletonEPNS_8IOSystemEPNS0_7MeshXmlE(ptr noundef %pIOHandler, ptr noundef %mesh) #2 align 2 personality ptr @__gxx_personality_v0 {
entry:
  %retval = alloca i1, align 1
  %pIOHandler.addr = alloca ptr, align 8
  %mesh.addr = alloca ptr, align 8
  %reader = alloca %"class.std::shared_ptr.86", align 8
  %cleanup.dest.slot = alloca i32, align 4
  %skeleton = alloca ptr, align 8
  %exn.slot = alloca ptr, align 8
  %ehselector.slot = alloca i32, align 4
  %serializer = alloca %"class.Assimp::Ogre::OgreBinarySerializer", align 8
  store ptr %pIOHandler, ptr %pIOHandler.addr, align 8
  store ptr %mesh, ptr %mesh.addr, align 8
  %0 = load ptr, ptr %mesh.addr, align 8
  %tobool = icmp ne ptr %0, null
  br i1 %tobool, label %lor.lhs.false, label %if.then

lor.lhs.false:                                    ; preds = %entry
  %1 = load ptr, ptr %mesh.addr, align 8
  %skeletonRef = getelementptr inbounds %"class.Assimp::Ogre::MeshXml", ptr %1, i32 0, i32 0
  %call = call noundef zeroext i1 @_ZNKSt7__cxx1112basic_stringIcSt11char_traitsIcESaIcEE5emptyEv(ptr noundef nonnull align 8 dereferenceable(32) %skeletonRef) #5
  br i1 %call, label %if.then, label %if.end

if.then:                                          ; preds = %lor.lhs.false, %entry
  store i1 false, ptr %retval, align 1
  br label %return

if.end:                                           ; preds = %lor.lhs.false
  %2 = load ptr, ptr %pIOHandler.addr, align 8
  %3 = load ptr, ptr %mesh.addr, align 8
  %skeletonRef1 = getelementptr inbounds %"class.Assimp::Ogre::MeshXml", ptr %3, i32 0, i32 0
  call void @_ZN6Assimp4Ogre20OgreBinarySerializer10OpenReaderEPNS_8IOSystemERKNSt7__cxx1112basic_stringIcSt11char_traitsIcESaIcEEE(ptr sret(%"class.std::shared_ptr.86") align 8 %reader, ptr noundef %2, ptr noundef nonnull align 8 dereferenceable(32) %skeletonRef1)
  %call2 = call noundef ptr @_ZNKSt12__shared_ptrIN6Assimp12StreamReaderILb0ELb0EEELN9__gnu_cxx12_Lock_policyE2EE3getEv(ptr noundef nonnull align 8 dereferenceable(16) %reader) #5
  %tobool3 = icmp ne ptr %call2, null
  br i1 %tobool3, label %if.end5, label %if.then4

if.then4:                                         ; preds = %if.end
  store i1 false, ptr %retval, align 1
  store i32 1, ptr %cleanup.dest.slot, align 4
  br label %cleanup

if.end5:                                          ; preds = %if.end
  %call6 = invoke noalias noundef nonnull ptr @_Znwm(i64 noundef 56) #15
          to label %invoke.cont unwind label %lpad

invoke.cont:                                      ; preds = %if.end5
  invoke void @_ZN6Assimp4Ogre8SkeletonC1Ev(ptr noundef nonnull align 8 dereferenceable(52) %call6)
          to label %invoke.cont8 unwind label %lpad7

invoke.cont8:                                     ; preds = %invoke.cont
  store ptr %call6, ptr %skeleton, align 8
  %call9 = call noundef ptr @_ZNKSt12__shared_ptrIN6Assimp12StreamReaderILb0ELb0EEELN9__gnu_cxx12_Lock_policyE2EE3getEv(ptr noundef nonnull align 8 dereferenceable(16) %reader) #5
  invoke void @_ZN6Assimp4Ogre20OgreBinarySerializerC2EPNS_12StreamReaderILb0ELb0EEENS1_9AssetModeE(ptr noundef nonnull align 8 dereferenceable(20) %serializer, ptr noundef %call9, i32 noundef 1)
          to label %invoke.cont10 unwind label %lpad

invoke.cont10:                                    ; preds = %invoke.cont8
  %4 = load ptr, ptr %skeleton, align 8
  invoke void @_ZN6Assimp4Ogre20OgreBinarySerializer12ReadSkeletonEPNS0_8SkeletonE(ptr noundef nonnull align 8 dereferenceable(20) %serializer, ptr noundef %4)
          to label %invoke.cont11 unwind label %lpad

invoke.cont11:                                    ; preds = %invoke.cont10
  %5 = load ptr, ptr %skeleton, align 8
  %6 = load ptr, ptr %mesh.addr, align 8
  %skeleton12 = getelementptr inbounds %"class.Assimp::Ogre::MeshXml", ptr %6, i32 0, i32 1
  store ptr %5, ptr %skeleton12, align 8
  store i1 true, ptr %retval, align 1
  store i32 1, ptr %cleanup.dest.slot, align 4
  br label %cleanup

lpad:                                             ; preds = %invoke.cont10, %invoke.cont8, %if.end5
  %7 = landingpad { ptr, i32 }
          cleanup
  %8 = extractvalue { ptr, i32 } %7, 0
  store ptr %8, ptr %exn.slot, align 8
  %9 = extractvalue { ptr, i32 } %7, 1
  store i32 %9, ptr %ehselector.slot, align 4
  br label %ehcleanup

lpad7:                                            ; preds = %invoke.cont
  %10 = landingpad { ptr, i32 }
          cleanup
  %11 = extractvalue { ptr, i32 } %10, 0
  store ptr %11, ptr %exn.slot, align 8
  %12 = extractvalue { ptr, i32 } %10, 1
  store i32 %12, ptr %ehselector.slot, align 4
  call void @_ZdlPv(ptr noundef %call6) #17
  br label %ehcleanup

cleanup:                                          ; preds = %invoke.cont11, %if.then4
  call void @_ZNSt10shared_ptrIN6Assimp12StreamReaderILb0ELb0EEEED2Ev(ptr noundef nonnull align 8 dereferenceable(16) %reader) #5
  br label %return

ehcleanup:                                        ; preds = %lpad7, %lpad
  call void @_ZNSt10shared_ptrIN6Assimp12StreamReaderILb0ELb0EEEED2Ev(ptr noundef nonnull align 8 dereferenceable(16) %reader) #5
  br label %eh.resume

return:                                           ; preds = %cleanup, %if.then
  %13 = load i1, ptr %retval, align 1
  ret i1 %13

eh.resume:                                        ; preds = %ehcleanup
  %exn = load ptr, ptr %exn.slot, align 8
  %sel = load i32, ptr %ehselector.slot, align 4
  %lpad.val = insertvalue { ptr, i32 } poison, ptr %exn, 0
  %lpad.val13 = insertvalue { ptr, i32 } %lpad.val, i32 %sel, 1
  resume { ptr, i32 } %lpad.val13
}