; Function Attrs: mustprogress uwtable
define hidden noundef zeroext i1 @_ZN6Assimp4Ogre20OgreBinarySerializer14ImportSkeletonEPNS_8IOSystemEPNS0_7MeshXmlE(ptr noundef %pIOHandler, ptr noundef %mesh) local_unnamed_addr #2 align 2 personality ptr @__gxx_personality_v0 {
entry:
  %reader = alloca %"class.std::shared_ptr.86", align 8
  %serializer = alloca %"class.Assimp::Ogre::OgreBinarySerializer", align 8
  %tobool.not = icmp eq ptr %mesh, null
  br i1 %tobool.not, label %return, label %lor.lhs.false

lor.lhs.false:                                    ; preds = %entry
  %call = tail call noundef zeroext i1 @_ZNKSt7__cxx1112basic_stringIcSt11char_traitsIcESaIcEE5emptyEv(ptr noundef nonnull align 8 dereferenceable(32) %mesh) #19
  br i1 %call, label %return, label %if.end

if.end:                                           ; preds = %lor.lhs.false
  call void @_ZN6Assimp4Ogre20OgreBinarySerializer10OpenReaderEPNS_8IOSystemERKNSt7__cxx1112basic_stringIcSt11char_traitsIcESaIcEEE(ptr nonnull sret(%"class.std::shared_ptr.86") align 8 %reader, ptr noundef %pIOHandler, ptr noundef nonnull align 8 dereferenceable(32) %mesh)
  %0 = load ptr, ptr %reader, align 8
  %tobool3.not = icmp ne ptr %0, null
  br i1 %tobool3.not, label %if.end5, label %cleanup

if.end5:                                          ; preds = %if.end
  %call6 = invoke noalias noundef nonnull dereferenceable(56) ptr @_Znwm(i64 noundef 56) #21
          to label %invoke.cont unwind label %lpad

invoke.cont:                                      ; preds = %if.end5
  invoke void @_ZN6Assimp4Ogre8SkeletonC1Ev(ptr noundef nonnull align 8 dereferenceable(52) %call6)
          to label %invoke.cont8 unwind label %lpad7

invoke.cont8:                                     ; preds = %invoke.cont
  %1 = load ptr, ptr %reader, align 8
  store i32 0, ptr %serializer, align 8
  %m_reader.i = getelementptr inbounds i8, ptr %serializer, i64 8
  store ptr %1, ptr %m_reader.i, align 8
  %assetMode.i = getelementptr inbounds i8, ptr %serializer, i64 16
  store i32 1, ptr %assetMode.i, align 8
  invoke void @_ZN6Assimp4Ogre20OgreBinarySerializer12ReadSkeletonEPNS0_8SkeletonE(ptr noundef nonnull align 8 dereferenceable(20) %serializer, ptr noundef nonnull %call6)
          to label %invoke.cont11 unwind label %lpad

invoke.cont11:                                    ; preds = %invoke.cont8
  %skeleton12 = getelementptr inbounds i8, ptr %mesh, i64 32
  store ptr %call6, ptr %skeleton12, align 8
  br label %cleanup

lpad:                                             ; preds = %invoke.cont8, %if.end5
  %2 = landingpad { ptr, i32 }
          cleanup
  br label %ehcleanup

lpad7:                                            ; preds = %invoke.cont
  %3 = landingpad { ptr, i32 }
          cleanup
  call void @_ZdlPv(ptr noundef nonnull %call6) #22
  br label %ehcleanup

cleanup:                                          ; preds = %if.end, %invoke.cont11
  %_M_refcount.i.i = getelementptr inbounds i8, ptr %reader, i64 8
  %4 = load ptr, ptr %_M_refcount.i.i, align 8
  %cmp.not.i.i.i = icmp eq ptr %4, null
  br i1 %cmp.not.i.i.i, label %return, label %if.then.i.i.i

if.then.i.i.i:                                    ; preds = %cleanup
  %_M_use_count.i.i.i.i = getelementptr inbounds i8, ptr %4, i64 8
  %5 = load atomic i64, ptr %_M_use_count.i.i.i.i acquire, align 8
  %cmp.i.i.i.i = icmp eq i64 %5, 4294967297
  %6 = trunc i64 %5 to i32
  br i1 %cmp.i.i.i.i, label %if.then.i.i.i.i, label %if.end.i.i.i.i

if.then.i.i.i.i:                                  ; preds = %if.then.i.i.i
  store i32 0, ptr %_M_use_count.i.i.i.i, align 8
  %_M_weak_count.i.i.i.i = getelementptr inbounds i8, ptr %4, i64 12
  store i32 0, ptr %_M_weak_count.i.i.i.i, align 4
  %vtable.i.i.i.i = load ptr, ptr %4, align 8
  %vfn.i.i.i.i = getelementptr inbounds i8, ptr %vtable.i.i.i.i, i64 16
  %7 = load ptr, ptr %vfn.i.i.i.i, align 8
  call void %7(ptr noundef nonnull align 8 dereferenceable(16) %4) #19
  br label %if.end8.sink.split.i.i.i.i

if.end.i.i.i.i:                                   ; preds = %if.then.i.i.i
  %8 = load i8, ptr @__libc_single_threaded, align 1
  %tobool.i.not.i.i.i.i = icmp eq i8 %8, 0
  br i1 %tobool.i.not.i.i.i.i, label %if.else.i.i.i.i.i, label %if.then.i.i.i.i.i

if.then.i.i.i.i.i:                                ; preds = %if.end.i.i.i.i
  %add.i.i.i.i.i = add nsw i32 %6, -1
  store i32 %add.i.i.i.i.i, ptr %_M_use_count.i.i.i.i, align 4
  br label %_ZN9__gnu_cxx27__exchange_and_add_dispatchEPii.exit.i.i.i.i

if.else.i.i.i.i.i:                                ; preds = %if.end.i.i.i.i
  %9 = atomicrmw volatile add ptr %_M_use_count.i.i.i.i, i32 -1 acq_rel, align 4
  br label %_ZN9__gnu_cxx27__exchange_and_add_dispatchEPii.exit.i.i.i.i

_ZN9__gnu_cxx27__exchange_and_add_dispatchEPii.exit.i.i.i.i: ; preds = %if.else.i.i.i.i.i, %if.then.i.i.i.i.i
  %retval.i.0.i.i.i.i = phi i32 [ %6, %if.then.i.i.i.i.i ], [ %9, %if.else.i.i.i.i.i ]
  %cmp6.i.i.i.i = icmp eq i32 %retval.i.0.i.i.i.i, 1
  br i1 %cmp6.i.i.i.i, label %if.then7.i.i.i.i, label %return

if.then7.i.i.i.i:                                 ; preds = %_ZN9__gnu_cxx27__exchange_and_add_dispatchEPii.exit.i.i.i.i
  %vtable.i.i.i.i.i.i = load ptr, ptr %4, align 8
  %vfn.i.i.i.i.i.i = getelementptr inbounds i8, ptr %vtable.i.i.i.i.i.i, i64 16
  %10 = load ptr, ptr %vfn.i.i.i.i.i.i, align 8
  call void %10(ptr noundef nonnull align 8 dereferenceable(16) %4) #19
  %_M_weak_count.i.i.i.i.i.i = getelementptr inbounds i8, ptr %4, i64 12
  %11 = load i8, ptr @__libc_single_threaded, align 1
  %tobool.i.not.i.i.i.i.i.i = icmp eq i8 %11, 0
  br i1 %tobool.i.not.i.i.i.i.i.i, label %if.else.i.i.i.i.i.i.i, label %if.then.i.i.i.i.i.i.i

if.then.i.i.i.i.i.i.i:                            ; preds = %if.then7.i.i.i.i
  %12 = load i32, ptr %_M_weak_count.i.i.i.i.i.i, align 4
  %add.i.i.i.i.i.i.i = add nsw i32 %12, -1
  store i32 %add.i.i.i.i.i.i.i, ptr %_M_weak_count.i.i.i.i.i.i, align 4
  br label %_ZN9__gnu_cxx27__exchange_and_add_dispatchEPii.exit.i.i.i.i.i.i

if.else.i.i.i.i.i.i.i:                            ; preds = %if.then7.i.i.i.i
  %13 = atomicrmw volatile add ptr %_M_weak_count.i.i.i.i.i.i, i32 -1 acq_rel, align 4
  br label %_ZN9__gnu_cxx27__exchange_and_add_dispatchEPii.exit.i.i.i.i.i.i

_ZN9__gnu_cxx27__exchange_and_add_dispatchEPii.exit.i.i.i.i.i.i: ; preds = %if.else.i.i.i.i.i.i.i, %if.then.i.i.i.i.i.i.i
  %retval.i.0.i.i.i.i.i.i = phi i32 [ %12, %if.then.i.i.i.i.i.i.i ], [ %13, %if.else.i.i.i.i.i.i.i ]
  %cmp.i.i.i.i.i.i = icmp eq i32 %retval.i.0.i.i.i.i.i.i, 1
  br i1 %cmp.i.i.i.i.i.i, label %if.end8.sink.split.i.i.i.i, label %return

if.end8.sink.split.i.i.i.i:                       ; preds = %_ZN9__gnu_cxx27__exchange_and_add_dispatchEPii.exit.i.i.i.i.i.i, %if.then.i.i.i.i
  %vtable2.i.i.i.i.i.i = load ptr, ptr %4, align 8
  %vfn3.i.i.i.i.i.i = getelementptr inbounds i8, ptr %vtable2.i.i.i.i.i.i, i64 24
  %14 = load ptr, ptr %vfn3.i.i.i.i.i.i, align 8
  call void %14(ptr noundef nonnull align 8 dereferenceable(16) %4) #19
  br label %return

ehcleanup:                                        ; preds = %lpad7, %lpad
  %.pn = phi { ptr, i32 } [ %2, %lpad ], [ %3, %lpad7 ]
  call void @_ZNSt10shared_ptrIN6Assimp12StreamReaderILb0ELb0EEEED2Ev(ptr noundef nonnull align 8 dereferenceable(16) %reader) #19
  resume { ptr, i32 } %.pn

return:                                           ; preds = %if.end8.sink.split.i.i.i.i, %_ZN9__gnu_cxx27__exchange_and_add_dispatchEPii.exit.i.i.i.i.i.i, %_ZN9__gnu_cxx27__exchange_and_add_dispatchEPii.exit.i.i.i.i, %cleanup, %entry, %lor.lhs.false
  %retval.1 = phi i1 [ false, %lor.lhs.false ], [ false, %entry ], [ %tobool3.not, %cleanup ], [ %tobool3.not, %_ZN9__gnu_cxx27__exchange_and_add_dispatchEPii.exit.i.i.i.i ], [ %tobool3.not, %_ZN9__gnu_cxx27__exchange_and_add_dispatchEPii.exit.i.i.i.i.i.i ], [ %tobool3.not, %if.end8.sink.split.i.i.i.i ]
  ret i1 %retval.1
}